target datalayout = "e-m:e-p270:32:32-p271:32:32-p272:64:64-i64:64-i128:128-f80:128-n8:16:32:64-S128"
target triple = "x86_64-pc-linux-gnu"

%struct.ewah_bitmap = type { ptr, i64, i64, i64, ptr }

@bitmap_pool_size = internal global i64 0, align 8
@bitmap_pool = internal global [16 x ptr] zeroinitializer, align 16

; Function Attrs: nounwind uwtable
define internal void @ewah_clear(ptr noundef %0) #0 {
  %2 = alloca ptr, align 8
  store ptr %0, ptr %2, align 8, !tbaa !4
  %3 = load ptr, ptr %2, align 8, !tbaa !4
  %4 = getelementptr inbounds nuw %struct.ewah_bitmap, ptr %3, i32 0, i32 1
  store i64 1, ptr %4, align 8, !tbaa !20
  %5 = load ptr, ptr %2, align 8, !tbaa !4
  %6 = getelementptr inbounds nuw %struct.ewah_bitmap, ptr %5, i32 0, i32 0
  %7 = load ptr, ptr %6, align 8, !tbaa !21
  %8 = getelementptr inbounds i64, ptr %7, i64 0
  store i64 0, ptr %8, align 8, !tbaa !11
  %9 = load ptr, ptr %2, align 8, !tbaa !4
  %10 = getelementptr inbounds nuw %struct.ewah_bitmap, ptr %9, i32 0, i32 3
  store i64 0, ptr %10, align 8, !tbaa !13
  %11 = load ptr, ptr %2, align 8, !tbaa !4
  %12 = getelementptr inbounds nuw %struct.ewah_bitmap, ptr %11, i32 0, i32 0
  %13 = load ptr, ptr %12, align 8, !tbaa !21
  %14 = load ptr, ptr %2, align 8, !tbaa !4
  %15 = getelementptr inbounds nuw %struct.ewah_bitmap, ptr %14, i32 0, i32 4
  store ptr %13, ptr %15, align 8, !tbaa !16
  ret void
}

; Function Attrs: nounwind uwtable
define dso_local void @ewah_free(ptr noundef %0) #0 {
  %2 = alloca ptr, align 8
  store ptr %0, ptr %2, align 8, !tbaa !4
  %3 = load ptr, ptr %2, align 8, !tbaa !4
  %4 = icmp ne ptr %3, null
  br i1 %4, label %6, label %5

5:                                                ; preds = %1
  br label %17

6:                                                ; preds = %1
  %7 = load ptr, ptr %2, align 8, !tbaa !4
  %8 = getelementptr inbounds nuw %struct.ewah_bitmap, ptr %7, i32 0, i32 2
  %9 = load i64, ptr %8, align 8, !tbaa !23
  %10 = icmp ne i64 %9, 0
  br i1 %10, label %11, label %15

11:                                               ; preds = %6
  %12 = load ptr, ptr %2, align 8, !tbaa !4
  %13 = getelementptr inbounds nuw %struct.ewah_bitmap, ptr %12, i32 0, i32 0
  %14 = load ptr, ptr %13, align 8, !tbaa !21
  call void @free(ptr noundef %14) #7
  br label %15

15:                                               ; preds = %11, %6
  %16 = load ptr, ptr %2, align 8, !tbaa !4
  call void @free(ptr noundef %16) #7
  br label %17

17:                                               ; preds = %15, %5
  ret void
}

; Function Attrs: nounwind uwtable
define dso_local void @ewah_pool_free(ptr noundef %0) #0 {
  %2 = alloca ptr, align 8
  store ptr %0, ptr %2, align 8, !tbaa !4
  %3 = load ptr, ptr %2, align 8, !tbaa !4
  %4 = icmp ne ptr %3, null
  br i1 %4, label %6, label %5

5:                                                ; preds = %1
  br label %22

6:                                                ; preds = %1
  %7 = load i64, ptr @bitmap_pool_size, align 8, !tbaa !11
  %8 = icmp eq i64 %7, 16
  br i1 %8, label %14, label %9

9:                                                ; preds = %6
  %10 = load ptr, ptr %2, align 8, !tbaa !4
  %11 = getelementptr inbounds nuw %struct.ewah_bitmap, ptr %10, i32 0, i32 2
  %12 = load i64, ptr %11, align 8, !tbaa !23
  %13 = icmp eq i64 %12, 0
  br i1 %13, label %14, label %16

14:                                               ; preds = %9, %6
  %15 = load ptr, ptr %2, align 8, !tbaa !4
  call void @ewah_free(ptr noundef %15)
  br label %22

16:                                               ; preds = %9
  %17 = load ptr, ptr %2, align 8, !tbaa !4
  call void @ewah_clear(ptr noundef %17)
  %18 = load ptr, ptr %2, align 8, !tbaa !4
  %19 = load i64, ptr @bitmap_pool_size, align 8, !tbaa !11
  %20 = add i64 %19, 1
  store i64 %20, ptr @bitmap_pool_size, align 8, !tbaa !11
  %21 = getelementptr inbounds nuw [16 x ptr], ptr @bitmap_pool, i64 0, i64 %19
  store ptr %18, ptr %21, align 8, !tbaa !4
  br label %22

22:                                               ; preds = %16, %14, %5
  ret void
}