; Function Attrs: mustprogress nounwind willreturn uwtable
define dso_local void @ewah_pool_free(ptr noundef %0) local_unnamed_addr #4 {
  %.not = icmp eq ptr %0, null
  br i1 %.not, label %17, label %2

2:                                                ; preds = %1
  %3 = load i64, ptr @bitmap_pool_size, align 8, !tbaa !12
  %4 = icmp eq i64 %3, 16
  %.phi.trans.insert = getelementptr inbounds nuw i8, ptr %0, i64 16
  %.pre = load i64, ptr %.phi.trans.insert, align 8, !tbaa !15
  %5 = icmp eq i64 %.pre, 0
  br i1 %4, label %7, label %6

6:                                                ; preds = %2
  br i1 %5, label %ewah_free.exit, label %10

7:                                                ; preds = %2
  br i1 %5, label %ewah_free.exit, label %8

8:                                                ; preds = %7
  %9 = load ptr, ptr %0, align 8, !tbaa !14
  tail call void @free(ptr noundef %9) #12
  br label %ewah_free.exit

ewah_free.exit:                                   ; preds = %6, %7, %8
  tail call void @free(ptr noundef nonnull %0) #12
  br label %17

10:                                               ; preds = %6
  %11 = getelementptr inbounds nuw i8, ptr %0, i64 8
  store i64 1, ptr %11, align 8, !tbaa !13
  %12 = load ptr, ptr %0, align 8, !tbaa !14
  store i64 0, ptr %12, align 8, !tbaa !12
  %13 = getelementptr inbounds nuw i8, ptr %0, i64 24
  store i64 0, ptr %13, align 8, !tbaa !4
  %14 = getelementptr inbounds nuw i8, ptr %0, i64 32
  store ptr %12, ptr %14, align 8, !tbaa !11
  %15 = add i64 %3, 1
  store i64 %15, ptr @bitmap_pool_size, align 8, !tbaa !12
  %16 = getelementptr inbounds nuw [16 x ptr], ptr @bitmap_pool, i64 0, i64 %3
  store ptr %0, ptr %16, align 8, !tbaa !43
  br label %17

17:                                               ; preds = %1, %10, %ewah_free.exit
  ret void
}